; Function Attrs: nounwind uwtable
define ptr @l_Array_mapMUnsafe_map___at___private_Lean_Elab_Inductive_0__Lean_Elab_Command_elabCtors_checkParamOccs___spec__12___boxed(ptr noundef %0, ptr noundef %1, ptr noundef %2, ptr noundef %3, ptr noundef %4, ptr noundef %5, ptr noundef %6, ptr noundef %7, ptr noundef %8, ptr noundef %9, ptr noundef %10, ptr noundef %11, ptr noundef %12, ptr noundef %13, ptr noundef %14, ptr noundef %15) local_unnamed_addr #0 {
  %17 = ptrtoint ptr %2 to i64
  %18 = and i64 %17, 1
  %.not = icmp eq i64 %18, 0
  br i1 %.not, label %19, label %lean_dec.exit26

19:                                               ; preds = %16
  %20 = load i32, ptr %2, align 4, !tbaa !4
  %21 = icmp sgt i32 %20, 1
  br i1 %21, label %22, label %24, !prof !9

22:                                               ; preds = %19
  %23 = add nsw i32 %20, -1
  store i32 %23, ptr %2, align 4, !tbaa !4
  br label %lean_dec.exit26

24:                                               ; preds = %19
  %.not.i = icmp eq i32 %20, 0
  br i1 %.not.i, label %lean_dec.exit26, label %25

25:                                               ; preds = %24
  tail call void @lean_dec_ref_cold(ptr noundef nonnull %2) #6
  br label %lean_dec.exit26

lean_dec.exit26:                                  ; preds = %25, %24, %22, %16
  %26 = ptrtoint ptr %3 to i64
  %27 = and i64 %26, 1
  %.not34 = icmp eq i64 %27, 0
  br i1 %.not34, label %28, label %lean_dec.exit25

28:                                               ; preds = %lean_dec.exit26
  %29 = load i32, ptr %3, align 4, !tbaa !4
  %30 = icmp sgt i32 %29, 1
  br i1 %30, label %31, label %33, !prof !9

31:                                               ; preds = %28
  %32 = add nsw i32 %29, -1
  store i32 %32, ptr %3, align 4, !tbaa !4
  br label %lean_dec.exit25

33:                                               ; preds = %28
  %.not.i27 = icmp eq i32 %29, 0
  br i1 %.not.i27, label %lean_dec.exit25, label %34

34:                                               ; preds = %33
  tail call void @lean_dec_ref_cold(ptr noundef nonnull %3) #6
  br label %lean_dec.exit25

lean_dec.exit25:                                  ; preds = %34, %33, %31, %lean_dec.exit26
  %35 = getelementptr i8, ptr %6, i64 8
  %.val33 = load i64, ptr %35, align 8, !tbaa !12
  %36 = ptrtoint ptr %6 to i64
  %37 = and i64 %36, 1
  %.not35 = icmp eq i64 %37, 0
  br i1 %.not35, label %38, label %lean_dec.exit24

38:                                               ; preds = %lean_dec.exit25
  %39 = load i32, ptr %6, align 4, !tbaa !4
  %40 = icmp sgt i32 %39, 1
  br i1 %40, label %41, label %43, !prof !9

41:                                               ; preds = %38
  %42 = add nsw i32 %39, -1
  store i32 %42, ptr %6, align 4, !tbaa !4
  br label %lean_dec.exit24

43:                                               ; preds = %38
  %.not.i29 = icmp eq i32 %39, 0
  br i1 %.not.i29, label %lean_dec.exit24, label %44

44:                                               ; preds = %43
  tail call void @lean_dec_ref_cold(ptr noundef nonnull %6) #6
  br label %lean_dec.exit24

lean_dec.exit24:                                  ; preds = %44, %43, %41, %lean_dec.exit25
  %45 = getelementptr i8, ptr %7, i64 8
  %.val = load i64, ptr %45, align 8, !tbaa !12
  %46 = ptrtoint ptr %7 to i64
  %47 = and i64 %46, 1
  %.not36 = icmp eq i64 %47, 0
  br i1 %.not36, label %48, label %lean_dec.exit

48:                                               ; preds = %lean_dec.exit24
  %49 = load i32, ptr %7, align 4, !tbaa !4
  %50 = icmp sgt i32 %49, 1
  br i1 %50, label %51, label %53, !prof !9

51:                                               ; preds = %48
  %52 = add nsw i32 %49, -1
  store i32 %52, ptr %7, align 4, !tbaa !4
  br label %lean_dec.exit

53:                                               ; preds = %48
  %.not.i31 = icmp eq i32 %49, 0
  br i1 %.not.i31, label %lean_dec.exit, label %54

54:                                               ; preds = %53
  tail call void @lean_dec_ref_cold(ptr noundef nonnull %7) #6
  br label %lean_dec.exit

lean_dec.exit:                                    ; preds = %54, %53, %51, %lean_dec.exit24
  %55 = lshr i64 %26, 1
  %56 = trunc i64 %55 to i8
  %57 = lshr i64 %17, 1
  %58 = trunc i64 %57 to i8
  %59 = tail call ptr @l_Array_mapMUnsafe_map___at___private_Lean_Elab_Inductive_0__Lean_Elab_Command_elabCtors_checkParamOccs___spec__12(ptr noundef %0, ptr noundef %1, i8 noundef zeroext %58, i8 noundef zeroext %56, ptr noundef %4, ptr noundef %5, i64 noundef %.val33, i64 noundef %.val, ptr noundef %8, ptr noundef %9, ptr noundef %10, ptr noundef %11, ptr noundef %12, ptr noundef %13, ptr noundef %14, ptr noundef %15)
  ret ptr %59
}